target datalayout = "e-m:e-p270:32:32-p271:32:32-p272:64:64-i64:64-i128:128-f80:128-n8:16:32:64-S128"
target triple = "x86_64-pc-linux-gnu"

%"struct.std::pair.2" = type <{ i64, i8, [7 x i8] }>

; Function Attrs: mustprogress uwtable
define noundef i32 @_ZN6google8protobuf2io16CodedInputStream23ReadVarintSizeAsIntSlowEv(ptr noundef nonnull align 8 dereferenceable(80) %0) #5 align 2 {
  %2 = alloca i32, align 4
  %3 = alloca ptr, align 8
  %4 = alloca %"struct.std::pair.2", align 8
  %5 = alloca { i64, i8 }, align 8
  %6 = alloca i32, align 4
  store ptr %0, ptr %3, align 8, !tbaa !3
  %7 = load ptr, ptr %3, align 8
  call void @llvm.lifetime.start.p0(i64 16, ptr %4) #3
  %8 = call { i64, i8 } @_ZN6google8protobuf2io16CodedInputStream20ReadVarint64FallbackEv(ptr noundef nonnull align 8 dereferenceable(80) %7)
  store { i64, i8 } %8, ptr %5, align 8
  call void @llvm.memcpy.p0.p0.i64(ptr align 8 %4, ptr align 8 %5, i64 9, i1 false)
  %9 = getelementptr inbounds nuw %"struct.std::pair.2", ptr %4, i32 0, i32 1
  %10 = load i8, ptr %9, align 8, !tbaa !56, !range !36, !noundef !37
  %11 = trunc i8 %10 to i1
  br i1 %11, label %12, label %16

12:                                               ; preds = %1
  %13 = getelementptr inbounds nuw %"struct.std::pair.2", ptr %4, i32 0, i32 0
  %14 = load i64, ptr %13, align 8, !tbaa !54
  %15 = icmp ugt i64 %14, 2147483647
  br i1 %15, label %16, label %17

16:                                               ; preds = %12, %1
  store i32 -1, ptr %2, align 4
  store i32 1, ptr %6, align 4
  br label %21

17:                                               ; preds = %12
  %18 = getelementptr inbounds nuw %"struct.std::pair.2", ptr %4, i32 0, i32 0
  %19 = load i64, ptr %18, align 8, !tbaa !54
  %20 = trunc i64 %19 to i32
  store i32 %20, ptr %2, align 4
  store i32 1, ptr %6, align 4
  br label %21

21:                                               ; preds = %17, %16
  call void @llvm.lifetime.end.p0(i64 16, ptr %4) #3
  %22 = load i32, ptr %2, align 4
  ret i32 %22
}