; Function Attrs: mustprogress uwtable
define noundef range(i32 -1, -2147483648) i32 @_ZN6google8protobuf2io16CodedInputStream23ReadVarintSizeAsIntSlowEv(ptr noundef nonnull align 8 captures(none) dereferenceable(80) %0) local_unnamed_addr #4 align 2 {
  %2 = tail call { i64, i8 } @_ZN6google8protobuf2io16CodedInputStream20ReadVarint64FallbackEv(ptr noundef nonnull align 8 dereferenceable(80) %0)
  %.fca.0.extract = extractvalue { i64, i8 } %2, 0
  %.fca.1.extract = extractvalue { i64, i8 } %2, 1
  %3 = trunc i8 %.fca.1.extract to i1
  %4 = icmp ult i64 %.fca.0.extract, 2147483648
  %or.cond.not = select i1 %3, i1 %4, i1 false
  %5 = trunc nuw nsw i64 %.fca.0.extract to i32
  %.0 = select i1 %or.cond.not, i32 %5, i32 -1
  ret i32 %.0
}